target datalayout = "e-m:e-p270:32:32-p271:32:32-p272:64:64-i64:64-i128:128-f80:128-n8:16:32:64-S128"
target triple = "x86_64-unknown-linux-gnu"

%struct.typeInterface = type { ptr, ptr, ptr, ptr, ptr }
%struct.enumConfigData = type { ptr, ptr, i32, ptr }
%struct.standardConfig = type { ptr, ptr, i32, %struct.typeInterface, %union.typeData, i32, ptr }
%union.typeData = type { %struct.numericConfigData }
%struct.numericConfigData = type { %union.anon, i32, i32, i64, i64, i64, ptr }
%union.anon = type { ptr }

; Function Attrs: nounwind uwtable
define internal ptr @enumConfigGet(ptr noundef %config) #0 {
entry:
  %config.addr = alloca ptr, align 8
  %val = alloca i32, align 4
  %bitflags = alloca i32, align 4
  store ptr %config, ptr %config.addr, align 8
  %0 = load ptr, ptr %config.addr, align 8
  %flags = getelementptr inbounds %struct.standardConfig, ptr %0, i32 0, i32 2
  %1 = load i32, ptr %flags, align 8
  %conv = zext i32 %1 to i64
  %and = and i64 %conv, 256
  %tobool = icmp ne i64 %and, 0
  br i1 %tobool, label %cond.true, label %cond.false

cond.true:                                        ; preds = %entry
  %2 = load ptr, ptr %config.addr, align 8
  %privdata = getelementptr inbounds %struct.standardConfig, ptr %2, i32 0, i32 6
  %3 = load ptr, ptr %privdata, align 8
  %call = call i32 @getModuleEnumConfig(ptr noundef %3)
  br label %cond.end

cond.false:                                       ; preds = %entry
  %4 = load ptr, ptr %config.addr, align 8
  %data = getelementptr inbounds %struct.standardConfig, ptr %4, i32 0, i32 4
  %config1 = getelementptr inbounds %struct.enumConfigData, ptr %data, i32 0, i32 0
  %5 = load ptr, ptr %config1, align 8
  %6 = load i32, ptr %5, align 4
  br label %cond.end

cond.end:                                         ; preds = %cond.false, %cond.true
  %cond = phi i32 [ %call, %cond.true ], [ %6, %cond.false ]
  store i32 %cond, ptr %val, align 4
  %7 = load ptr, ptr %config.addr, align 8
  %flags2 = getelementptr inbounds %struct.standardConfig, ptr %7, i32 0, i32 2
  %8 = load i32, ptr %flags2, align 8
  %conv3 = zext i32 %8 to i64
  %and4 = and i64 %conv3, 8
  %tobool5 = icmp ne i64 %and4, 0
  %lnot = xor i1 %tobool5, true
  %lnot6 = xor i1 %lnot, true
  %lnot.ext = zext i1 %lnot6 to i32
  store i32 %lnot.ext, ptr %bitflags, align 4
  %9 = load ptr, ptr %config.addr, align 8
  %data7 = getelementptr inbounds %struct.standardConfig, ptr %9, i32 0, i32 4
  %enum_value = getelementptr inbounds %struct.enumConfigData, ptr %data7, i32 0, i32 1
  %10 = load ptr, ptr %enum_value, align 8
  %11 = load i32, ptr %val, align 4
  %12 = load i32, ptr %bitflags, align 4
  %call8 = call ptr @configEnumGetName(ptr noundef %10, i32 noundef %11, i32 noundef %12)
  ret ptr %call8
}