; Function Attrs: nounwind uwtable
define internal ptr @enumConfigGet(ptr nocapture noundef readonly %config) #2 {
entry:
  %flags = getelementptr inbounds i8, ptr %config, i64 16
  %0 = load i32, ptr %flags, align 8
  %1 = and i32 %0, 256
  %tobool.not = icmp eq i32 %1, 0
  br i1 %tobool.not, label %cond.false, label %cond.true

cond.true:                                        ; preds = %entry
  %privdata = getelementptr inbounds i8, ptr %config, i64 120
  %2 = load ptr, ptr %privdata, align 8
  %call = tail call i32 @getModuleEnumConfig(ptr noundef %2) #24
  %.pre = load i32, ptr %flags, align 8
  br label %cond.end

cond.false:                                       ; preds = %entry
  %data = getelementptr inbounds i8, ptr %config, i64 64
  %3 = load ptr, ptr %data, align 8
  %4 = load i32, ptr %3, align 4
  br label %cond.end

cond.end:                                         ; preds = %cond.false, %cond.true
  %5 = phi i32 [ %.pre, %cond.true ], [ %0, %cond.false ]
  %cond = phi i32 [ %call, %cond.true ], [ %4, %cond.false ]
  %6 = lshr i32 %5, 3
  %.lobit = and i32 %6, 1
  %enum_value = getelementptr inbounds i8, ptr %config, i64 72
  %7 = load ptr, ptr %enum_value, align 8
  %call8 = tail call fastcc ptr @configEnumGetName(ptr noundef %7, i32 noundef %cond, i32 noundef %.lobit)
  ret ptr %call8
}